; Function Attrs: nounwind uwtable
define internal ptr @unicode_tailmatch(ptr readnone captures(none) %0, ptr noundef %1) #0 {
  %3 = alloca ptr, align 8
  %4 = alloca ptr, align 8
  %5 = alloca i64, align 8
  %6 = alloca i64, align 8
  %7 = alloca i32, align 4
  call void @llvm.lifetime.start.p0(i64 8, ptr nonnull %3) #4
  call void @llvm.lifetime.start.p0(i64 8, ptr nonnull %4) #4
  call void @llvm.lifetime.start.p0(i64 8, ptr nonnull %5) #4
  call void @llvm.lifetime.start.p0(i64 8, ptr nonnull %6) #4
  call void @llvm.lifetime.start.p0(i64 4, ptr nonnull %7) #4
  %8 = call i32 (ptr, ptr, ...) @PyArg_ParseTuple(ptr noundef %1, ptr noundef nonnull @.str.391, ptr noundef nonnull %3, ptr noundef nonnull %4, ptr noundef nonnull %5, ptr noundef nonnull %6, ptr noundef nonnull %7) #4
  %.not = icmp eq i32 %8, 0
  br i1 %.not, label %34, label %9

9:                                                ; preds = %2
  %10 = load ptr, ptr %3, align 8, !tbaa !8
  %11 = call ptr @Py_GetConstantBorrowed(i32 noundef 0) #4
  %12 = icmp eq ptr %10, %11
  br i1 %12, label %13, label %14

13:                                               ; preds = %9
  store ptr null, ptr %3, align 8, !tbaa !8
  br label %14

14:                                               ; preds = %9, %13
  %15 = load ptr, ptr %4, align 8, !tbaa !8
  %16 = call ptr @Py_GetConstantBorrowed(i32 noundef 0) #4
  %17 = icmp eq ptr %15, %16
  br i1 %17, label %18, label %._crit_edge

._crit_edge:                                      ; preds = %14
  %.pre = load ptr, ptr %4, align 8, !tbaa !8
  br label %19

18:                                               ; preds = %14
  store ptr null, ptr %4, align 8, !tbaa !8
  br label %19

19:                                               ; preds = %._crit_edge, %18
  %20 = phi ptr [ %.pre, %._crit_edge ], [ null, %18 ]
  %21 = load ptr, ptr %3, align 8, !tbaa !8
  %22 = load i64, ptr %5, align 8, !tbaa !10
  %23 = load i64, ptr %6, align 8, !tbaa !10
  %24 = load i32, ptr %7, align 4, !tbaa !12
  %25 = call i64 @PyUnicode_Tailmatch(ptr noundef %21, ptr noundef %20, i64 noundef %22, i64 noundef %23, i32 noundef %24) #4
  %26 = icmp eq i64 %25, -1
  %27 = call ptr @PyErr_Occurred() #4
  %.not5 = icmp eq ptr %27, null
  br i1 %26, label %28, label %30

28:                                               ; preds = %19
  br i1 %.not5, label %29, label %34

29:                                               ; preds = %28
  call void @__assert_fail(ptr noundef nonnull @.str.367, ptr noundef nonnull @.str.360, i32 noundef 1213, ptr noundef nonnull @__PRETTY_FUNCTION__.unicode_tailmatch) #5
  unreachable

30:                                               ; preds = %19
  br i1 %.not5, label %32, label %31

31:                                               ; preds = %30
  call void @__assert_fail(ptr noundef nonnull @.str.368, ptr noundef nonnull @.str.360, i32 noundef 1213, ptr noundef nonnull @__PRETTY_FUNCTION__.unicode_tailmatch) #5
  unreachable

32:                                               ; preds = %30
  %33 = call ptr @PyLong_FromSsize_t(i64 noundef %25) #4
  br label %34

34:                                               ; preds = %32, %28, %2
  %.0 = phi ptr [ null, %2 ], [ %33, %32 ], [ null, %28 ]
  call void @llvm.lifetime.end.p0(i64 4, ptr nonnull %7) #4
  call void @llvm.lifetime.end.p0(i64 8, ptr nonnull %6) #4
  call void @llvm.lifetime.end.p0(i64 8, ptr nonnull %5) #4
  call void @llvm.lifetime.end.p0(i64 8, ptr nonnull %4) #4
  call void @llvm.lifetime.end.p0(i64 8, ptr nonnull %3) #4
  ret ptr %.0
}